target datalayout = "e-m:e-p270:32:32-p271:32:32-p272:64:64-i64:64-i128:128-f80:128-n8:16:32:64-S128"
target triple = "x86_64-unknown-linux-gnu"

%"class.rocksdb::Slice" = type { ptr, i64 }
%"class.rocksdb::Block" = type <{ %"struct.rocksdb::BlockContents", ptr, i64, i32, i32, %"class.std::unique_ptr.36", ptr, i32, i32, i8, i8, %"class.rocksdb::DataBlockHashIndex", [4 x i8] }>
%"struct.rocksdb::BlockContents" = type { %"class.rocksdb::Slice", %"class.std::unique_ptr.28" }
%"class.std::unique_ptr.28" = type { %"struct.std::__uniq_ptr_data.29" }
%"struct.std::__uniq_ptr_data.29" = type { %"class.std::__uniq_ptr_impl.30" }
%"class.std::__uniq_ptr_impl.30" = type { %"class.std::tuple.31" }
%"class.std::tuple.31" = type { %"struct.std::_Tuple_impl.32" }
%"struct.std::_Tuple_impl.32" = type { %"struct.std::_Tuple_impl.33", %"struct.std::_Head_base.35" }
%"struct.std::_Tuple_impl.33" = type { %"struct.std::_Head_base.34" }
%"struct.std::_Head_base.34" = type { %"struct.rocksdb::CustomDeleter" }
%"struct.rocksdb::CustomDeleter" = type { ptr }
%"struct.std::_Head_base.35" = type { ptr }
%"class.std::unique_ptr.36" = type { %"struct.std::__uniq_ptr_data.37" }
%"struct.std::__uniq_ptr_data.37" = type { %"class.std::__uniq_ptr_impl.38" }
%"class.std::__uniq_ptr_impl.38" = type { %"class.std::tuple.39" }
%"class.std::tuple.39" = type { %"struct.std::_Tuple_impl.40" }
%"struct.std::_Tuple_impl.40" = type { %"struct.std::_Head_base.43" }
%"struct.std::_Head_base.43" = type { ptr }
%"class.rocksdb::DataBlockHashIndex" = type { i16 }

; Function Attrs: mustprogress nounwind uwtable
define linkonce_odr noundef i32 @_ZN7rocksdb13DecodeFixed32EPKc(ptr noundef %ptr) #1 comdat {
entry:
  %ptr.addr = alloca ptr, align 8
  %result = alloca i32, align 4
  store ptr %ptr, ptr %ptr.addr, align 8
  %0 = load ptr, ptr %ptr.addr, align 8
  call void @llvm.memcpy.p0.p0.i64(ptr align 4 %result, ptr align 1 %0, i64 4, i1 false)
  %1 = load i32, ptr %result, align 4
  ret i32 %1
}

; Function Attrs: mustprogress uwtable
define noundef signext i8 @_ZNK7rocksdb5Block9IndexTypeEv(ptr noundef nonnull align 8 dereferenceable(84) %this) #0 align 2 {
entry:
  %retval = alloca i8, align 1
  %this.addr = alloca ptr, align 8
  %block_footer = alloca i32, align 4
  %num_restarts = alloca i32, align 4
  %index_type = alloca i8, align 1
  store ptr %this, ptr %this.addr, align 8
  %this1 = load ptr, ptr %this.addr, align 8
  %size_ = getelementptr inbounds %"class.rocksdb::Block", ptr %this1, i32 0, i32 2
  %0 = load i64, ptr %size_, align 8
  %cmp = icmp ugt i64 %0, 65536
  br i1 %cmp, label %if.then, label %if.end

if.then:                                          ; preds = %entry
  store i8 0, ptr %retval, align 1
  br label %return

if.end:                                           ; preds = %entry
  %data_ = getelementptr inbounds %"class.rocksdb::Block", ptr %this1, i32 0, i32 1
  %1 = load ptr, ptr %data_, align 8
  %size_2 = getelementptr inbounds %"class.rocksdb::Block", ptr %this1, i32 0, i32 2
  %2 = load i64, ptr %size_2, align 8
  %add.ptr = getelementptr inbounds i8, ptr %1, i64 %2
  %add.ptr3 = getelementptr inbounds i8, ptr %add.ptr, i64 -4
  %call = call noundef i32 @_ZN7rocksdb13DecodeFixed32EPKc(ptr noundef %add.ptr3)
  store i32 %call, ptr %block_footer, align 4
  %3 = load i32, ptr %block_footer, align 4
  store i32 %3, ptr %num_restarts, align 4
  %4 = load i32, ptr %block_footer, align 4
  call void @_ZN7rocksdb29UnPackIndexTypeAndNumRestartsEjPNS_22BlockBasedTableOptions18DataBlockIndexTypeEPj(i32 noundef %4, ptr noundef %index_type, ptr noundef %num_restarts)
  %5 = load i8, ptr %index_type, align 1
  store i8 %5, ptr %retval, align 1
  br label %return

return:                                           ; preds = %if.end, %if.then
  %6 = load i8, ptr %retval, align 1
  ret i8 %6
}